(dp0
S'tagprogress'
p1
(dp2
S'/Users/jeroenb/Downloads/mu'
p3
(lp4
S'/Users/jeroenb/Downloads/mu/Jon Hopkins - We Disappear'
p5
asS'/Users/jeroenb/Max'
p6
(lp7
g6
asS'/Users/jeroenb/Noordkaap'
p8
(lp9
S'/Users/jeroenb/Noordkaap/Massis'
p10
asS'/Users/jeroenb/Downloads/new/_Unsubscribe_'
p11
(lp12
S'/Users/jeroenb/Downloads/new/_Unsubscribe_/Spek Hondje'
p13
asS'/Users/jeroenb/Downloads/new'
p14
(lp15
S'/Users/jeroenb/Downloads/new/Jon Hopkins/Immunity'
p16
ass.