(dp0
S'tagprogress'
p1
(dp2
S'/Users/jeroenb/Downloads/mu'
p3
(lp4
S'/Users/jeroenb/Downloads/mu/Jon Hopkins - We Disappear'
p5
asS'/Users/jeroenb/Downloads/new/_Unsubscribe_'
p6
(lp7
S'/Users/jeroenb/Downloads/new/_Unsubscribe_/Spek Hondje'
p8
asS'/Users/jeroenb/Downloads/Perc - The Power And The Glory'
p9
(lp10
g9
asS'/Users/jeroenb/Max'
p11
(lp12
g11
asS'/Users/jeroenb/Noordkaap'
p13
(lp14
S'/Users/jeroenb/Noordkaap/Massis'
p15
asS'/Users/jeroenb/Downloads/new'
p16
(lp17
S'/Users/jeroenb/Downloads/new/Jon Hopkins/Immunity'
p18
ass.